ccopy_reg
_reconstructor
p0
(cmadgraph.core.base_objects
Model
p1
c__builtin__
dict
p2
(dp3
S'functions'
p4
NsS'interaction_dict'
p5
(dp6
sS'name'
p7
S'sm'
p8
sS'ref_dict_to0'
p9
(dp10
sS'interactions'
p11
g0
(cmadgraph.core.base_objects
InteractionList
p12
c__builtin__
list
p13
(lp14
g0
(cmadgraph.core.base_objects
Interaction
p15
g2
(dp16
S'particles'
p17
g0
(cmadgraph.core.base_objects
ParticleList
p18
g13
(lp19
g0
(cmadgraph.core.base_objects
Particle
p20
g2
(dp21
S'texname'
p22
S'd'
p23
sS'is_part'
p24
I00
sg7
S'd'
p25
sS'self_antipart'
p26
I00
sS'color'
p27
I3
sS'width'
p28
S'ZERO'
p29
sS'charge'
p30
F0.0
sS'mass'
p31
S'ZERO'
p32
sS'antiname'
p33
S'd~'
p34
sS'line'
p35
S'straight'
p36
sS'propagating'
p37
I01
sS'spin'
p38
I2
sS'antitexname'
p39
g23
sS'pdg_code'
p40
I1
stp41
Rp42
ag0
(g20
g2
(dp43
g22
g23
sg24
I01
sg7
g25
sg26
I00
sg27
I3
sg28
g29
sg30
F0.0
sg31
g32
sg33
g34
sg35
g36
sg37
I01
sg38
I2
sg39
g23
sg40
I1
stp44
Rp45
ag0
(g20
g2
(dp46
g22
S'_'
p47
sg24
I01
sg7
S'g'
p48
sg26
I01
sg27
I8
sg28
S'ZERO'
p49
sg30
F0.0
sg31
S'ZERO'
p50
sg33
S'g'
p51
sg35
S'curly'
p52
sg37
I01
sg38
I3
sg39
g47
sg40
I21
stp53
Rp54
atp55
Rp56
sS'lorentz'
p57
(lp58
S''
p59
asg27
(lp60
g0
(cmadgraph.core.color_algebra
ColorString
p61
g13
(lp62
cmadgraph.core.color_algebra
T
p63
(I2
I1
I0
tp64
Rp65
atp66
Rp67
(dp68
S'coeff'
p69
cfractions
Fraction
p70
(S'1'
p71
tp72
Rp73
sS'is_imaginary'
p74
I00
sS'Nc_power'
p75
I0
sbasS'id'
p76
I1
sS'orders'
p77
(dp78
S'QCD'
p79
I1
ssS'couplings'
p80
(dp81
(I0
I0
tp82
S'GG'
p83
sstp84
Rp85
ag0
(g15
g2
(dp86
g17
g0
(g18
g13
(lp87
g0
(g20
g2
(dp88
g22
S'u'
p89
sg24
I00
sg7
S'u'
p90
sg26
I00
sg27
I3
sg28
S'ZERO'
p91
sg30
F0.0
sg31
S'ZERO'
p92
sg33
S'u~'
p93
sg35
g36
sg37
I01
sg38
I2
sg39
g89
sg40
I2
stp94
Rp95
ag0
(g20
g2
(dp96
g22
g89
sg24
I01
sg7
g90
sg26
I00
sg27
I3
sg28
g91
sg30
F0.0
sg31
g92
sg33
g93
sg35
g36
sg37
I01
sg38
I2
sg39
g89
sg40
I2
stp97
Rp98
ag0
(g20
g2
(dp99
g22
g47
sg24
I01
sg7
g48
sg26
I01
sg27
I8
sg28
g49
sg30
F0.0
sg31
g50
sg33
g51
sg35
g52
sg37
I01
sg38
I3
sg39
g47
sg40
I21
stp100
Rp101
atp102
Rp103
sg57
(lp104
g59
asg27
(lp105
g0
(g61
g13
(lp106
g63
(I2
I1
I0
tp107
Rp108
atp109
Rp110
(dp111
g69
g73
sg74
I00
sg75
I0
sbasg76
I2
sg77
(dp112
S'QCD'
p113
I1
ssg80
(dp114
g82
S'GG'
p115
sstp116
Rp117
ag0
(g15
g2
(dp118
g17
g0
(g18
g13
(lp119
g0
(g20
g2
(dp120
g22
S's'
p121
sg24
I00
sg7
S's'
p122
sg26
I00
sg27
I3
sg28
S'ZERO'
p123
sg30
F0.0
sg31
S'ZERO'
p124
sg33
S's~'
p125
sg35
g36
sg37
I01
sg38
I2
sg39
g121
sg40
I3
stp126
Rp127
ag0
(g20
g2
(dp128
g22
g121
sg24
I01
sg7
g122
sg26
I00
sg27
I3
sg28
g123
sg30
F0.0
sg31
g124
sg33
g125
sg35
g36
sg37
I01
sg38
I2
sg39
g121
sg40
I3
stp129
Rp130
ag0
(g20
g2
(dp131
g22
g47
sg24
I01
sg7
g48
sg26
I01
sg27
I8
sg28
g49
sg30
F0.0
sg31
g50
sg33
g51
sg35
g52
sg37
I01
sg38
I3
sg39
g47
sg40
I21
stp132
Rp133
atp134
Rp135
sg57
(lp136
g59
asg27
(lp137
g0
(g61
g13
(lp138
g63
(I2
I1
I0
tp139
Rp140
atp141
Rp142
(dp143
g69
g73
sg74
I00
sg75
I0
sbasg76
I3
sg77
(dp144
S'QCD'
p145
I1
ssg80
(dp146
g82
S'GG'
p147
sstp148
Rp149
ag0
(g15
g2
(dp150
g17
g0
(g18
g13
(lp151
g0
(g20
g2
(dp152
g22
S'c'
p153
sg24
I00
sg7
S'c'
p154
sg26
I00
sg27
I3
sg28
S'ZERO'
p155
sg30
F0.0
sg31
S'ZERO'
p156
sg33
S'c~'
p157
sg35
g36
sg37
I01
sg38
I2
sg39
g153
sg40
I4
stp158
Rp159
ag0
(g20
g2
(dp160
g22
g153
sg24
I01
sg7
g154
sg26
I00
sg27
I3
sg28
g155
sg30
F0.0
sg31
g156
sg33
g157
sg35
g36
sg37
I01
sg38
I2
sg39
g153
sg40
I4
stp161
Rp162
ag0
(g20
g2
(dp163
g22
g47
sg24
I01
sg7
g48
sg26
I01
sg27
I8
sg28
g49
sg30
F0.0
sg31
g50
sg33
g51
sg35
g52
sg37
I01
sg38
I3
sg39
g47
sg40
I21
stp164
Rp165
atp166
Rp167
sg57
(lp168
g59
asg27
(lp169
g0
(g61
g13
(lp170
g63
(I2
I1
I0
tp171
Rp172
atp173
Rp174
(dp175
g69
g73
sg74
I00
sg75
I0
sbasg76
I4
sg77
(dp176
S'QCD'
p177
I1
ssg80
(dp178
g82
S'GG'
p179
sstp180
Rp181
ag0
(g15
g2
(dp182
g17
g0
(g18
g13
(lp183
g0
(g20
g2
(dp184
g22
S'b'
p185
sg24
I00
sg7
S'b'
p186
sg26
I00
sg27
I3
sg28
S'ZERO'
p187
sg30
F0.0
sg31
S'BMASS'
p188
sg33
S'b~'
p189
sg35
g36
sg37
I01
sg38
I2
sg39
g185
sg40
I5
stp190
Rp191
ag0
(g20
g2
(dp192
g22
g185
sg24
I01
sg7
g186
sg26
I00
sg27
I3
sg28
g187
sg30
F0.0
sg31
g188
sg33
g189
sg35
g36
sg37
I01
sg38
I2
sg39
g185
sg40
I5
stp193
Rp194
ag0
(g20
g2
(dp195
g22
g47
sg24
I01
sg7
g48
sg26
I01
sg27
I8
sg28
g49
sg30
F0.0
sg31
g50
sg33
g51
sg35
g52
sg37
I01
sg38
I3
sg39
g47
sg40
I21
stp196
Rp197
atp198
Rp199
sg57
(lp200
g59
asg27
(lp201
g0
(g61
g13
(lp202
g63
(I2
I1
I0
tp203
Rp204
atp205
Rp206
(dp207
g69
g73
sg74
I00
sg75
I0
sbasg76
I5
sg77
(dp208
S'QCD'
p209
I1
ssg80
(dp210
g82
S'GG'
p211
sstp212
Rp213
ag0
(g15
g2
(dp214
g17
g0
(g18
g13
(lp215
g0
(g20
g2
(dp216
g22
S't'
p217
sg24
I00
sg7
S't'
p218
sg26
I00
sg27
I3
sg28
S'TWIDTH'
p219
sg30
F0.0
sg31
S'TMASS'
p220
sg33
S't~'
p221
sg35
g36
sg37
I01
sg38
I2
sg39
g217
sg40
I6
stp222
Rp223
ag0
(g20
g2
(dp224
g22
g217
sg24
I01
sg7
g218
sg26
I00
sg27
I3
sg28
g219
sg30
F0.0
sg31
g220
sg33
g221
sg35
g36
sg37
I01
sg38
I2
sg39
g217
sg40
I6
stp225
Rp226
ag0
(g20
g2
(dp227
g22
g47
sg24
I01
sg7
g48
sg26
I01
sg27
I8
sg28
g49
sg30
F0.0
sg31
g50
sg33
g51
sg35
g52
sg37
I01
sg38
I3
sg39
g47
sg40
I21
stp228
Rp229
atp230
Rp231
sg57
(lp232
g59
asg27
(lp233
g0
(g61
g13
(lp234
g63
(I2
I1
I0
tp235
Rp236
atp237
Rp238
(dp239
g69
g73
sg74
I00
sg75
I0
sbasg76
I6
sg77
(dp240
S'QCD'
p241
I1
ssg80
(dp242
g82
S'GG'
p243
sstp244
Rp245
ag0
(g15
g2
(dp246
g17
g0
(g18
g13
(lp247
g0
(g20
g2
(dp248
g22
g47
sg24
I01
sg7
g48
sg26
I01
sg27
I8
sg28
g49
sg30
F0.0
sg31
g50
sg33
g51
sg35
g52
sg37
I01
sg38
I3
sg39
g47
sg40
I21
stp249
Rp250
ag0
(g20
g2
(dp251
g22
g47
sg24
I01
sg7
g48
sg26
I01
sg27
I8
sg28
g49
sg30
F0.0
sg31
g50
sg33
g51
sg35
g52
sg37
I01
sg38
I3
sg39
g47
sg40
I21
stp252
Rp253
ag0
(g20
g2
(dp254
g22
g47
sg24
I01
sg7
g48
sg26
I01
sg27
I8
sg28
g49
sg30
F0.0
sg31
g50
sg33
g51
sg35
g52
sg37
I01
sg38
I3
sg39
g47
sg40
I21
stp255
Rp256
atp257
Rp258
sg57
(lp259
g59
asg27
(lp260
g0
(g61
g13
(lp261
cmadgraph.core.color_algebra
f
p262
(I0
I1
I2
tp263
Rp264
atp265
Rp266
(dp267
g69
g73
sg74
I01
sg75
I0
sbasg76
I7
sg77
(dp268
S'QCD'
p269
I1
ssg80
(dp270
g82
S'G'
p271
sstp272
Rp273
ag0
(g15
g2
(dp274
g17
g0
(g18
g13
(lp275
g0
(g20
g2
(dp276
g22
g47
sg24
I01
sg7
g48
sg26
I01
sg27
I8
sg28
g49
sg30
F0.0
sg31
g50
sg33
g51
sg35
g52
sg37
I01
sg38
I3
sg39
g47
sg40
I21
stp277
Rp278
ag0
(g20
g2
(dp279
g22
g47
sg24
I01
sg7
g48
sg26
I01
sg27
I8
sg28
g49
sg30
F0.0
sg31
g50
sg33
g51
sg35
g52
sg37
I01
sg38
I3
sg39
g47
sg40
I21
stp280
Rp281
ag0
(g20
g2
(dp282
g22
g47
sg24
I01
sg7
g48
sg26
I01
sg27
I8
sg28
g49
sg30
F0.0
sg31
g50
sg33
g51
sg35
g52
sg37
I01
sg38
I3
sg39
g47
sg40
I21
stp283
Rp284
ag0
(g20
g2
(dp285
g22
g47
sg24
I01
sg7
g48
sg26
I01
sg27
I8
sg28
g49
sg30
F0.0
sg31
g50
sg33
g51
sg35
g52
sg37
I01
sg38
I3
sg39
g47
sg40
I21
stp286
Rp287
atp288
Rp289
sg57
(lp290
S'gggg1'
p291
aS'gggg2'
p292
aS'gggg3'
p293
asg27
(lp294
g0
(g61
g13
(lp295
g262
(I0
I1
I-1
tp296
Rp297
ag262
(I2
I3
I-1
tp298
Rp299
atp300
Rp301
(dp302
g69
g73
sg74
I00
sg75
I0
sbag0
(g61
g13
(lp303
g262
(I2
I0
I-1
tp304
Rp305
ag262
(I1
I3
I-1
tp306
Rp307
atp308
Rp309
(dp310
g69
g73
sg74
I00
sg75
I0
sbag0
(g61
g13
(lp311
g262
(I1
I2
I-1
tp312
Rp313
ag262
(I0
I3
I-1
tp314
Rp315
atp316
Rp317
(dp318
g69
g73
sg74
I00
sg75
I0
sbasg76
I8
sg77
(dp319
S'QCD'
p320
I2
ssg80
(dp321
(I0
I0
tp322
g271
s(I1
I1
tp323
g271
s(I2
I2
tp324
g271
sstp325
Rp326
ag0
(g15
g2
(dp327
g17
g0
(g18
g13
(lp328
g0
(g20
g2
(dp329
g22
g23
sg24
I00
sg7
g25
sg26
I00
sg27
I3
sg28
g29
sg30
F0.0
sg31
g32
sg33
g34
sg35
g36
sg37
I01
sg38
I2
sg39
g23
sg40
I1
stp330
Rp331
ag0
(g20
g2
(dp332
g22
g23
sg24
I01
sg7
g25
sg26
I00
sg27
I3
sg28
g29
sg30
F0.0
sg31
g32
sg33
g34
sg35
g36
sg37
I01
sg38
I2
sg39
g23
sg40
I1
stp333
Rp334
ag0
(g20
g2
(dp335
g22
S'A'
p336
sg24
I01
sg7
S'a'
p337
sg26
I01
sg27
I1
sg28
S'AWIDTH'
p338
sg30
F0.0
sg31
S'ZERO'
p339
sg33
S'a'
p340
sg35
S'wavy'
p341
sg37
I01
sg38
I3
sg39
g336
sg40
I22
stp342
Rp343
atp344
Rp345
sg57
(lp346
g59
asg27
(lp347
g0
(g61
g13
(lp348
g63
(I1
I0
tp349
Rp350
atp351
Rp352
(dp353
g69
g73
sg74
I00
sg75
I0
sbasg76
I9
sg77
(dp354
S'QED'
p355
I1
ssg80
(dp356
g82
S'GAD'
p357
sstp358
Rp359
ag0
(g15
g2
(dp360
g17
g0
(g18
g13
(lp361
g0
(g20
g2
(dp362
g22
g89
sg24
I00
sg7
g90
sg26
I00
sg27
I3
sg28
g91
sg30
F0.0
sg31
g92
sg33
g93
sg35
g36
sg37
I01
sg38
I2
sg39
g89
sg40
I2
stp363
Rp364
ag0
(g20
g2
(dp365
g22
g89
sg24
I01
sg7
g90
sg26
I00
sg27
I3
sg28
g91
sg30
F0.0
sg31
g92
sg33
g93
sg35
g36
sg37
I01
sg38
I2
sg39
g89
sg40
I2
stp366
Rp367
ag0
(g20
g2
(dp368
g22
g336
sg24
I01
sg7
g337
sg26
I01
sg27
I1
sg28
g338
sg30
F0.0
sg31
g339
sg33
g340
sg35
g341
sg37
I01
sg38
I3
sg39
g336
sg40
I22
stp369
Rp370
atp371
Rp372
sg57
(lp373
g59
asg27
(lp374
g0
(g61
g13
(lp375
g63
(I1
I0
tp376
Rp377
atp378
Rp379
(dp380
g69
g73
sg74
I00
sg75
I0
sbasg76
I10
sg77
(dp381
S'QED'
p382
I1
ssg80
(dp383
g82
S'GAU'
p384
sstp385
Rp386
ag0
(g15
g2
(dp387
g17
g0
(g18
g13
(lp388
g0
(g20
g2
(dp389
g22
g121
sg24
I00
sg7
g122
sg26
I00
sg27
I3
sg28
g123
sg30
F0.0
sg31
g124
sg33
g125
sg35
g36
sg37
I01
sg38
I2
sg39
g121
sg40
I3
stp390
Rp391
ag0
(g20
g2
(dp392
g22
g121
sg24
I01
sg7
g122
sg26
I00
sg27
I3
sg28
g123
sg30
F0.0
sg31
g124
sg33
g125
sg35
g36
sg37
I01
sg38
I2
sg39
g121
sg40
I3
stp393
Rp394
ag0
(g20
g2
(dp395
g22
g336
sg24
I01
sg7
g337
sg26
I01
sg27
I1
sg28
g338
sg30
F0.0
sg31
g339
sg33
g340
sg35
g341
sg37
I01
sg38
I3
sg39
g336
sg40
I22
stp396
Rp397
atp398
Rp399
sg57
(lp400
g59
asg27
(lp401
g0
(g61
g13
(lp402
g63
(I1
I0
tp403
Rp404
atp405
Rp406
(dp407
g69
g73
sg74
I00
sg75
I0
sbasg76
I11
sg77
(dp408
S'QED'
p409
I1
ssg80
(dp410
g82
S'GAD'
p411
sstp412
Rp413
ag0
(g15
g2
(dp414
g17
g0
(g18
g13
(lp415
g0
(g20
g2
(dp416
g22
g153
sg24
I00
sg7
g154
sg26
I00
sg27
I3
sg28
g155
sg30
F0.0
sg31
g156
sg33
g157
sg35
g36
sg37
I01
sg38
I2
sg39
g153
sg40
I4
stp417
Rp418
ag0
(g20
g2
(dp419
g22
g153
sg24
I01
sg7
g154
sg26
I00
sg27
I3
sg28
g155
sg30
F0.0
sg31
g156
sg33
g157
sg35
g36
sg37
I01
sg38
I2
sg39
g153
sg40
I4
stp420
Rp421
ag0
(g20
g2
(dp422
g22
g336
sg24
I01
sg7
g337
sg26
I01
sg27
I1
sg28
g338
sg30
F0.0
sg31
g339
sg33
g340
sg35
g341
sg37
I01
sg38
I3
sg39
g336
sg40
I22
stp423
Rp424
atp425
Rp426
sg57
(lp427
g59
asg27
(lp428
g0
(g61
g13
(lp429
g63
(I1
I0
tp430
Rp431
atp432
Rp433
(dp434
g69
g73
sg74
I00
sg75
I0
sbasg76
I12
sg77
(dp435
S'QED'
p436
I1
ssg80
(dp437
g82
S'GAU'
p438
sstp439
Rp440
ag0
(g15
g2
(dp441
g17
g0
(g18
g13
(lp442
g0
(g20
g2
(dp443
g22
g185
sg24
I00
sg7
g186
sg26
I00
sg27
I3
sg28
g187
sg30
F0.0
sg31
g188
sg33
g189
sg35
g36
sg37
I01
sg38
I2
sg39
g185
sg40
I5
stp444
Rp445
ag0
(g20
g2
(dp446
g22
g185
sg24
I01
sg7
g186
sg26
I00
sg27
I3
sg28
g187
sg30
F0.0
sg31
g188
sg33
g189
sg35
g36
sg37
I01
sg38
I2
sg39
g185
sg40
I5
stp447
Rp448
ag0
(g20
g2
(dp449
g22
g336
sg24
I01
sg7
g337
sg26
I01
sg27
I1
sg28
g338
sg30
F0.0
sg31
g339
sg33
g340
sg35
g341
sg37
I01
sg38
I3
sg39
g336
sg40
I22
stp450
Rp451
atp452
Rp453
sg57
(lp454
g59
asg27
(lp455
g0
(g61
g13
(lp456
g63
(I1
I0
tp457
Rp458
atp459
Rp460
(dp461
g69
g73
sg74
I00
sg75
I0
sbasg76
I13
sg77
(dp462
S'QED'
p463
I1
ssg80
(dp464
g82
S'GAD'
p465
sstp466
Rp467
ag0
(g15
g2
(dp468
g17
g0
(g18
g13
(lp469
g0
(g20
g2
(dp470
g22
g217
sg24
I00
sg7
g218
sg26
I00
sg27
I3
sg28
g219
sg30
F0.0
sg31
g220
sg33
g221
sg35
g36
sg37
I01
sg38
I2
sg39
g217
sg40
I6
stp471
Rp472
ag0
(g20
g2
(dp473
g22
g217
sg24
I01
sg7
g218
sg26
I00
sg27
I3
sg28
g219
sg30
F0.0
sg31
g220
sg33
g221
sg35
g36
sg37
I01
sg38
I2
sg39
g217
sg40
I6
stp474
Rp475
ag0
(g20
g2
(dp476
g22
g336
sg24
I01
sg7
g337
sg26
I01
sg27
I1
sg28
g338
sg30
F0.0
sg31
g339
sg33
g340
sg35
g341
sg37
I01
sg38
I3
sg39
g336
sg40
I22
stp477
Rp478
atp479
Rp480
sg57
(lp481
g59
asg27
(lp482
g0
(g61
g13
(lp483
g63
(I1
I0
tp484
Rp485
atp486
Rp487
(dp488
g69
g73
sg74
I00
sg75
I0
sbasg76
I14
sg77
(dp489
S'QED'
p490
I1
ssg80
(dp491
g82
S'GAU'
p492
sstp493
Rp494
ag0
(g15
g2
(dp495
g17
g0
(g18
g13
(lp496
g0
(g20
g2
(dp497
g22
S'e'
p498
sg24
I00
sg7
S'e-'
p499
sg26
I00
sg27
I1
sg28
S'ZERO'
p500
sg30
F0.0
sg31
S'ZERO'
p501
sg33
S'e+'
p502
sg35
g36
sg37
I01
sg38
I2
sg39
g498
sg40
I11
stp503
Rp504
ag0
(g20
g2
(dp505
g22
g498
sg24
I01
sg7
g499
sg26
I00
sg27
I1
sg28
g500
sg30
F0.0
sg31
g501
sg33
g502
sg35
g36
sg37
I01
sg38
I2
sg39
g498
sg40
I11
stp506
Rp507
ag0
(g20
g2
(dp508
g22
g336
sg24
I01
sg7
g337
sg26
I01
sg27
I1
sg28
g338
sg30
F0.0
sg31
g339
sg33
g340
sg35
g341
sg37
I01
sg38
I3
sg39
g336
sg40
I22
stp509
Rp510
atp511
Rp512
sg57
(lp513
g59
asg27
(lp514
sg76
I15
sg77
(dp515
S'QED'
p516
I1
ssg80
(dp517
g82
S'GAL'
p518
sstp519
Rp520
ag0
(g15
g2
(dp521
g17
g0
(g18
g13
(lp522
g0
(g20
g2
(dp523
g22
S'mu'
p524
sg24
I00
sg7
S'mu-'
p525
sg26
I00
sg27
I1
sg28
S'ZERO'
p526
sg30
F0.0
sg31
S'ZERO'
p527
sg33
S'mu+'
p528
sg35
g36
sg37
I01
sg38
I2
sg39
g524
sg40
I13
stp529
Rp530
ag0
(g20
g2
(dp531
g22
g524
sg24
I01
sg7
g525
sg26
I00
sg27
I1
sg28
g526
sg30
F0.0
sg31
g527
sg33
g528
sg35
g36
sg37
I01
sg38
I2
sg39
g524
sg40
I13
stp532
Rp533
ag0
(g20
g2
(dp534
g22
g336
sg24
I01
sg7
g337
sg26
I01
sg27
I1
sg28
g338
sg30
F0.0
sg31
g339
sg33
g340
sg35
g341
sg37
I01
sg38
I3
sg39
g336
sg40
I22
stp535
Rp536
atp537
Rp538
sg57
(lp539
g59
asg27
(lp540
sg76
I16
sg77
(dp541
S'QED'
p542
I1
ssg80
(dp543
g82
S'GAL'
p544
sstp545
Rp546
ag0
(g15
g2
(dp547
g17
g0
(g18
g13
(lp548
g0
(g20
g2
(dp549
g22
S'ta'
p550
sg24
I00
sg7
S'ta-'
p551
sg26
I00
sg27
I1
sg28
S'ZERO'
p552
sg30
F0.0
sg31
S'LMASS'
p553
sg33
S'ta+'
p554
sg35
g36
sg37
I01
sg38
I2
sg39
g550
sg40
I15
stp555
Rp556
ag0
(g20
g2
(dp557
g22
g550
sg24
I01
sg7
g551
sg26
I00
sg27
I1
sg28
g552
sg30
F0.0
sg31
g553
sg33
g554
sg35
g36
sg37
I01
sg38
I2
sg39
g550
sg40
I15
stp558
Rp559
ag0
(g20
g2
(dp560
g22
g336
sg24
I01
sg7
g337
sg26
I01
sg27
I1
sg28
g338
sg30
F0.0
sg31
g339
sg33
g340
sg35
g341
sg37
I01
sg38
I3
sg39
g336
sg40
I22
stp561
Rp562
atp563
Rp564
sg57
(lp565
g59
asg27
(lp566
sg76
I17
sg77
(dp567
S'QED'
p568
I1
ssg80
(dp569
g82
S'GAL'
p570
sstp571
Rp572
ag0
(g15
g2
(dp573
g17
g0
(g18
g13
(lp574
g0
(g20
g2
(dp575
g22
g23
sg24
I00
sg7
g25
sg26
I00
sg27
I3
sg28
g29
sg30
F0.0
sg31
g32
sg33
g34
sg35
g36
sg37
I01
sg38
I2
sg39
g23
sg40
I1
stp576
Rp577
ag0
(g20
g2
(dp578
g22
g23
sg24
I01
sg7
g25
sg26
I00
sg27
I3
sg28
g29
sg30
F0.0
sg31
g32
sg33
g34
sg35
g36
sg37
I01
sg38
I2
sg39
g23
sg40
I1
stp579
Rp580
ag0
(g20
g2
(dp581
g22
S'Z'
p582
sg24
I01
sg7
S'z'
p583
sg26
I01
sg27
I1
sg28
S'ZWIDTH'
p584
sg30
F0.0
sg31
S'ZMASS'
p585
sg33
S'z'
p586
sg35
g341
sg37
I01
sg38
I3
sg39
g582
sg40
I23
stp587
Rp588
atp589
Rp590
sg57
(lp591
g59
asg27
(lp592
g0
(g61
g13
(lp593
g63
(I1
I0
tp594
Rp595
atp596
Rp597
(dp598
g69
g73
sg74
I00
sg75
I0
sbasg76
I18
sg77
(dp599
S'QED'
p600
I1
ssg80
(dp601
g82
S'GZD'
p602
sstp603
Rp604
ag0
(g15
g2
(dp605
g17
g0
(g18
g13
(lp606
g0
(g20
g2
(dp607
g22
g89
sg24
I00
sg7
g90
sg26
I00
sg27
I3
sg28
g91
sg30
F0.0
sg31
g92
sg33
g93
sg35
g36
sg37
I01
sg38
I2
sg39
g89
sg40
I2
stp608
Rp609
ag0
(g20
g2
(dp610
g22
g89
sg24
I01
sg7
g90
sg26
I00
sg27
I3
sg28
g91
sg30
F0.0
sg31
g92
sg33
g93
sg35
g36
sg37
I01
sg38
I2
sg39
g89
sg40
I2
stp611
Rp612
ag0
(g20
g2
(dp613
g22
g582
sg24
I01
sg7
g583
sg26
I01
sg27
I1
sg28
g584
sg30
F0.0
sg31
g585
sg33
g586
sg35
g341
sg37
I01
sg38
I3
sg39
g582
sg40
I23
stp614
Rp615
atp616
Rp617
sg57
(lp618
g59
asg27
(lp619
g0
(g61
g13
(lp620
g63
(I1
I0
tp621
Rp622
atp623
Rp624
(dp625
g69
g73
sg74
I00
sg75
I0
sbasg76
I19
sg77
(dp626
S'QED'
p627
I1
ssg80
(dp628
g82
S'GZU'
p629
sstp630
Rp631
ag0
(g15
g2
(dp632
g17
g0
(g18
g13
(lp633
g0
(g20
g2
(dp634
g22
g121
sg24
I00
sg7
g122
sg26
I00
sg27
I3
sg28
g123
sg30
F0.0
sg31
g124
sg33
g125
sg35
g36
sg37
I01
sg38
I2
sg39
g121
sg40
I3
stp635
Rp636
ag0
(g20
g2
(dp637
g22
g121
sg24
I01
sg7
g122
sg26
I00
sg27
I3
sg28
g123
sg30
F0.0
sg31
g124
sg33
g125
sg35
g36
sg37
I01
sg38
I2
sg39
g121
sg40
I3
stp638
Rp639
ag0
(g20
g2
(dp640
g22
g582
sg24
I01
sg7
g583
sg26
I01
sg27
I1
sg28
g584
sg30
F0.0
sg31
g585
sg33
g586
sg35
g341
sg37
I01
sg38
I3
sg39
g582
sg40
I23
stp641
Rp642
atp643
Rp644
sg57
(lp645
g59
asg27
(lp646
g0
(g61
g13
(lp647
g63
(I1
I0
tp648
Rp649
atp650
Rp651
(dp652
g69
g73
sg74
I00
sg75
I0
sbasg76
I20
sg77
(dp653
S'QED'
p654
I1
ssg80
(dp655
g82
S'GZD'
p656
sstp657
Rp658
ag0
(g15
g2
(dp659
g17
g0
(g18
g13
(lp660
g0
(g20
g2
(dp661
g22
g153
sg24
I00
sg7
g154
sg26
I00
sg27
I3
sg28
g155
sg30
F0.0
sg31
g156
sg33
g157
sg35
g36
sg37
I01
sg38
I2
sg39
g153
sg40
I4
stp662
Rp663
ag0
(g20
g2
(dp664
g22
g153
sg24
I01
sg7
g154
sg26
I00
sg27
I3
sg28
g155
sg30
F0.0
sg31
g156
sg33
g157
sg35
g36
sg37
I01
sg38
I2
sg39
g153
sg40
I4
stp665
Rp666
ag0
(g20
g2
(dp667
g22
g582
sg24
I01
sg7
g583
sg26
I01
sg27
I1
sg28
g584
sg30
F0.0
sg31
g585
sg33
g586
sg35
g341
sg37
I01
sg38
I3
sg39
g582
sg40
I23
stp668
Rp669
atp670
Rp671
sg57
(lp672
g59
asg27
(lp673
g0
(g61
g13
(lp674
g63
(I1
I0
tp675
Rp676
atp677
Rp678
(dp679
g69
g73
sg74
I00
sg75
I0
sbasg76
I21
sg77
(dp680
S'QED'
p681
I1
ssg80
(dp682
g82
S'GZU'
p683
sstp684
Rp685
ag0
(g15
g2
(dp686
g17
g0
(g18
g13
(lp687
g0
(g20
g2
(dp688
g22
g185
sg24
I00
sg7
g186
sg26
I00
sg27
I3
sg28
g187
sg30
F0.0
sg31
g188
sg33
g189
sg35
g36
sg37
I01
sg38
I2
sg39
g185
sg40
I5
stp689
Rp690
ag0
(g20
g2
(dp691
g22
g185
sg24
I01
sg7
g186
sg26
I00
sg27
I3
sg28
g187
sg30
F0.0
sg31
g188
sg33
g189
sg35
g36
sg37
I01
sg38
I2
sg39
g185
sg40
I5
stp692
Rp693
ag0
(g20
g2
(dp694
g22
g582
sg24
I01
sg7
g583
sg26
I01
sg27
I1
sg28
g584
sg30
F0.0
sg31
g585
sg33
g586
sg35
g341
sg37
I01
sg38
I3
sg39
g582
sg40
I23
stp695
Rp696
atp697
Rp698
sg57
(lp699
g59
asg27
(lp700
g0
(g61
g13
(lp701
g63
(I1
I0
tp702
Rp703
atp704
Rp705
(dp706
g69
g73
sg74
I00
sg75
I0
sbasg76
I22
sg77
(dp707
S'QED'
p708
I1
ssg80
(dp709
g82
S'GZD'
p710
sstp711
Rp712
ag0
(g15
g2
(dp713
g17
g0
(g18
g13
(lp714
g0
(g20
g2
(dp715
g22
g217
sg24
I00
sg7
g218
sg26
I00
sg27
I3
sg28
g219
sg30
F0.0
sg31
g220
sg33
g221
sg35
g36
sg37
I01
sg38
I2
sg39
g217
sg40
I6
stp716
Rp717
ag0
(g20
g2
(dp718
g22
g217
sg24
I01
sg7
g218
sg26
I00
sg27
I3
sg28
g219
sg30
F0.0
sg31
g220
sg33
g221
sg35
g36
sg37
I01
sg38
I2
sg39
g217
sg40
I6
stp719
Rp720
ag0
(g20
g2
(dp721
g22
g582
sg24
I01
sg7
g583
sg26
I01
sg27
I1
sg28
g584
sg30
F0.0
sg31
g585
sg33
g586
sg35
g341
sg37
I01
sg38
I3
sg39
g582
sg40
I23
stp722
Rp723
atp724
Rp725
sg57
(lp726
g59
asg27
(lp727
g0
(g61
g13
(lp728
g63
(I1
I0
tp729
Rp730
atp731
Rp732
(dp733
g69
g73
sg74
I00
sg75
I0
sbasg76
I23
sg77
(dp734
S'QED'
p735
I1
ssg80
(dp736
g82
S'GZU'
p737
sstp738
Rp739
ag0
(g15
g2
(dp740
g17
g0
(g18
g13
(lp741
g0
(g20
g2
(dp742
g22
g498
sg24
I00
sg7
g499
sg26
I00
sg27
I1
sg28
g500
sg30
F0.0
sg31
g501
sg33
g502
sg35
g36
sg37
I01
sg38
I2
sg39
g498
sg40
I11
stp743
Rp744
ag0
(g20
g2
(dp745
g22
g498
sg24
I01
sg7
g499
sg26
I00
sg27
I1
sg28
g500
sg30
F0.0
sg31
g501
sg33
g502
sg35
g36
sg37
I01
sg38
I2
sg39
g498
sg40
I11
stp746
Rp747
ag0
(g20
g2
(dp748
g22
g582
sg24
I01
sg7
g583
sg26
I01
sg27
I1
sg28
g584
sg30
F0.0
sg31
g585
sg33
g586
sg35
g341
sg37
I01
sg38
I3
sg39
g582
sg40
I23
stp749
Rp750
atp751
Rp752
sg57
(lp753
g59
asg27
(lp754
sg76
I24
sg77
(dp755
S'QED'
p756
I1
ssg80
(dp757
g82
S'GZL'
p758
sstp759
Rp760
ag0
(g15
g2
(dp761
g17
g0
(g18
g13
(lp762
g0
(g20
g2
(dp763
g22
g524
sg24
I00
sg7
g525
sg26
I00
sg27
I1
sg28
g526
sg30
F0.0
sg31
g527
sg33
g528
sg35
g36
sg37
I01
sg38
I2
sg39
g524
sg40
I13
stp764
Rp765
ag0
(g20
g2
(dp766
g22
g524
sg24
I01
sg7
g525
sg26
I00
sg27
I1
sg28
g526
sg30
F0.0
sg31
g527
sg33
g528
sg35
g36
sg37
I01
sg38
I2
sg39
g524
sg40
I13
stp767
Rp768
ag0
(g20
g2
(dp769
g22
g582
sg24
I01
sg7
g583
sg26
I01
sg27
I1
sg28
g584
sg30
F0.0
sg31
g585
sg33
g586
sg35
g341
sg37
I01
sg38
I3
sg39
g582
sg40
I23
stp770
Rp771
atp772
Rp773
sg57
(lp774
g59
asg27
(lp775
sg76
I25
sg77
(dp776
S'QED'
p777
I1
ssg80
(dp778
g82
S'GZL'
p779
sstp780
Rp781
ag0
(g15
g2
(dp782
g17
g0
(g18
g13
(lp783
g0
(g20
g2
(dp784
g22
g550
sg24
I00
sg7
g551
sg26
I00
sg27
I1
sg28
g552
sg30
F0.0
sg31
g553
sg33
g554
sg35
g36
sg37
I01
sg38
I2
sg39
g550
sg40
I15
stp785
Rp786
ag0
(g20
g2
(dp787
g22
g550
sg24
I01
sg7
g551
sg26
I00
sg27
I1
sg28
g552
sg30
F0.0
sg31
g553
sg33
g554
sg35
g36
sg37
I01
sg38
I2
sg39
g550
sg40
I15
stp788
Rp789
ag0
(g20
g2
(dp790
g22
g582
sg24
I01
sg7
g583
sg26
I01
sg27
I1
sg28
g584
sg30
F0.0
sg31
g585
sg33
g586
sg35
g341
sg37
I01
sg38
I3
sg39
g582
sg40
I23
stp791
Rp792
atp793
Rp794
sg57
(lp795
g59
asg27
(lp796
sg76
I26
sg77
(dp797
S'QED'
p798
I1
ssg80
(dp799
g82
S'GZL'
p800
sstp801
Rp802
ag0
(g15
g2
(dp803
g17
g0
(g18
g13
(lp804
g0
(g20
g2
(dp805
g22
S've'
p806
sg24
I00
sg7
S've'
p807
sg26
I00
sg27
I1
sg28
S'ZERO'
p808
sg30
F0.0
sg31
S'ZERO'
p809
sg33
S've~'
p810
sg35
g36
sg37
I01
sg38
I2
sg39
g806
sg40
I12
stp811
Rp812
ag0
(g20
g2
(dp813
g22
g806
sg24
I01
sg7
g807
sg26
I00
sg27
I1
sg28
g808
sg30
F0.0
sg31
g809
sg33
g810
sg35
g36
sg37
I01
sg38
I2
sg39
g806
sg40
I12
stp814
Rp815
ag0
(g20
g2
(dp816
g22
g582
sg24
I01
sg7
g583
sg26
I01
sg27
I1
sg28
g584
sg30
F0.0
sg31
g585
sg33
g586
sg35
g341
sg37
I01
sg38
I3
sg39
g582
sg40
I23
stp817
Rp818
atp819
Rp820
sg57
(lp821
g59
asg27
(lp822
sg76
I27
sg77
(dp823
S'QED'
p824
I1
ssg80
(dp825
g82
S'GZN'
p826
sstp827
Rp828
ag0
(g15
g2
(dp829
g17
g0
(g18
g13
(lp830
g0
(g20
g2
(dp831
g22
S'vm'
p832
sg24
I00
sg7
S'vm'
p833
sg26
I00
sg27
I1
sg28
S'ZERO'
p834
sg30
F0.0
sg31
S'ZERO'
p835
sg33
S'vm~'
p836
sg35
g36
sg37
I01
sg38
I2
sg39
g832
sg40
I14
stp837
Rp838
ag0
(g20
g2
(dp839
g22
g832
sg24
I01
sg7
g833
sg26
I00
sg27
I1
sg28
g834
sg30
F0.0
sg31
g835
sg33
g836
sg35
g36
sg37
I01
sg38
I2
sg39
g832
sg40
I14
stp840
Rp841
ag0
(g20
g2
(dp842
g22
g582
sg24
I01
sg7
g583
sg26
I01
sg27
I1
sg28
g584
sg30
F0.0
sg31
g585
sg33
g586
sg35
g341
sg37
I01
sg38
I3
sg39
g582
sg40
I23
stp843
Rp844
atp845
Rp846
sg57
(lp847
g59
asg27
(lp848
sg76
I28
sg77
(dp849
S'QED'
p850
I1
ssg80
(dp851
g82
S'GZN'
p852
sstp853
Rp854
ag0
(g15
g2
(dp855
g17
g0
(g18
g13
(lp856
g0
(g20
g2
(dp857
g22
S'vt'
p858
sg24
I00
sg7
S'vt'
p859
sg26
I00
sg27
I1
sg28
S'ZERO'
p860
sg30
F0.0
sg31
S'ZERO'
p861
sg33
S'vt~'
p862
sg35
g36
sg37
I01
sg38
I2
sg39
g858
sg40
I16
stp863
Rp864
ag0
(g20
g2
(dp865
g22
g858
sg24
I01
sg7
g859
sg26
I00
sg27
I1
sg28
g860
sg30
F0.0
sg31
g861
sg33
g862
sg35
g36
sg37
I01
sg38
I2
sg39
g858
sg40
I16
stp866
Rp867
ag0
(g20
g2
(dp868
g22
g582
sg24
I01
sg7
g583
sg26
I01
sg27
I1
sg28
g584
sg30
F0.0
sg31
g585
sg33
g586
sg35
g341
sg37
I01
sg38
I3
sg39
g582
sg40
I23
stp869
Rp870
atp871
Rp872
sg57
(lp873
g59
asg27
(lp874
sg76
I29
sg77
(dp875
S'QED'
p876
I1
ssg80
(dp877
g82
S'GZN'
p878
sstp879
Rp880
ag0
(g15
g2
(dp881
g17
g0
(g18
g13
(lp882
g0
(g20
g2
(dp883
g22
g23
sg24
I00
sg7
g25
sg26
I00
sg27
I3
sg28
g29
sg30
F0.0
sg31
g32
sg33
g34
sg35
g36
sg37
I01
sg38
I2
sg39
g23
sg40
I1
stp884
Rp885
ag0
(g20
g2
(dp886
g22
g89
sg24
I01
sg7
g90
sg26
I00
sg27
I3
sg28
g91
sg30
F0.0
sg31
g92
sg33
g93
sg35
g36
sg37
I01
sg38
I2
sg39
g89
sg40
I2
stp887
Rp888
ag0
(g20
g2
(dp889
g22
S'W'
p890
sg24
I01
sg7
S'w-'
p891
sg26
I00
sg27
I1
sg28
S'WWIDTH'
p892
sg30
F0.0
sg31
S'WMASS'
p893
sg33
S'w+'
p894
sg35
g341
sg37
I01
sg38
I3
sg39
g890
sg40
I-24
stp895
Rp896
atp897
Rp898
sg57
(lp899
g59
asg27
(lp900
g0
(g61
g13
(lp901
g63
(I1
I0
tp902
Rp903
atp904
Rp905
(dp906
g69
g73
sg74
I00
sg75
I0
sbasg76
I30
sg77
(dp907
S'QED'
p908
I1
ssg80
(dp909
g82
S'GWF'
p910
sstp911
Rp912
ag0
(g15
g2
(dp913
g17
g0
(g18
g13
(lp914
g0
(g20
g2
(dp915
g22
g121
sg24
I00
sg7
g122
sg26
I00
sg27
I3
sg28
g123
sg30
F0.0
sg31
g124
sg33
g125
sg35
g36
sg37
I01
sg38
I2
sg39
g121
sg40
I3
stp916
Rp917
ag0
(g20
g2
(dp918
g22
g153
sg24
I01
sg7
g154
sg26
I00
sg27
I3
sg28
g155
sg30
F0.0
sg31
g156
sg33
g157
sg35
g36
sg37
I01
sg38
I2
sg39
g153
sg40
I4
stp919
Rp920
ag0
(g20
g2
(dp921
g22
g890
sg24
I01
sg7
g891
sg26
I00
sg27
I1
sg28
g892
sg30
F0.0
sg31
g893
sg33
g894
sg35
g341
sg37
I01
sg38
I3
sg39
g890
sg40
I-24
stp922
Rp923
atp924
Rp925
sg57
(lp926
g59
asg27
(lp927
g0
(g61
g13
(lp928
g63
(I1
I0
tp929
Rp930
atp931
Rp932
(dp933
g69
g73
sg74
I00
sg75
I0
sbasg76
I31
sg77
(dp934
S'QED'
p935
I1
ssg80
(dp936
g82
S'GWF'
p937
sstp938
Rp939
ag0
(g15
g2
(dp940
g17
g0
(g18
g13
(lp941
g0
(g20
g2
(dp942
g22
g185
sg24
I00
sg7
g186
sg26
I00
sg27
I3
sg28
g187
sg30
F0.0
sg31
g188
sg33
g189
sg35
g36
sg37
I01
sg38
I2
sg39
g185
sg40
I5
stp943
Rp944
ag0
(g20
g2
(dp945
g22
g217
sg24
I01
sg7
g218
sg26
I00
sg27
I3
sg28
g219
sg30
F0.0
sg31
g220
sg33
g221
sg35
g36
sg37
I01
sg38
I2
sg39
g217
sg40
I6
stp946
Rp947
ag0
(g20
g2
(dp948
g22
g890
sg24
I01
sg7
g891
sg26
I00
sg27
I1
sg28
g892
sg30
F0.0
sg31
g893
sg33
g894
sg35
g341
sg37
I01
sg38
I3
sg39
g890
sg40
I-24
stp949
Rp950
atp951
Rp952
sg57
(lp953
g59
asg27
(lp954
g0
(g61
g13
(lp955
g63
(I1
I0
tp956
Rp957
atp958
Rp959
(dp960
g69
g73
sg74
I00
sg75
I0
sbasg76
I32
sg77
(dp961
S'QED'
p962
I1
ssg80
(dp963
g82
S'GWF'
p964
sstp965
Rp966
ag0
(g15
g2
(dp967
g17
g0
(g18
g13
(lp968
g0
(g20
g2
(dp969
g22
g89
sg24
I00
sg7
g90
sg26
I00
sg27
I3
sg28
g91
sg30
F0.0
sg31
g92
sg33
g93
sg35
g36
sg37
I01
sg38
I2
sg39
g89
sg40
I2
stp970
Rp971
ag0
(g20
g2
(dp972
g22
g23
sg24
I01
sg7
g25
sg26
I00
sg27
I3
sg28
g29
sg30
F0.0
sg31
g32
sg33
g34
sg35
g36
sg37
I01
sg38
I2
sg39
g23
sg40
I1
stp973
Rp974
ag0
(g20
g2
(dp975
g22
g890
sg24
I00
sg7
g891
sg26
I00
sg27
I1
sg28
g892
sg30
F0.0
sg31
g893
sg33
g894
sg35
g341
sg37
I01
sg38
I3
sg39
g890
sg40
I-24
stp976
Rp977
atp978
Rp979
sg57
(lp980
g59
asg27
(lp981
g0
(g61
g13
(lp982
g63
(I1
I0
tp983
Rp984
atp985
Rp986
(dp987
g69
g73
sg74
I00
sg75
I0
sbasg76
I33
sg77
(dp988
S'QED'
p989
I1
ssg80
(dp990
g82
S'GWF'
p991
sstp992
Rp993
ag0
(g15
g2
(dp994
g17
g0
(g18
g13
(lp995
g0
(g20
g2
(dp996
g22
g153
sg24
I00
sg7
g154
sg26
I00
sg27
I3
sg28
g155
sg30
F0.0
sg31
g156
sg33
g157
sg35
g36
sg37
I01
sg38
I2
sg39
g153
sg40
I4
stp997
Rp998
ag0
(g20
g2
(dp999
g22
g121
sg24
I01
sg7
g122
sg26
I00
sg27
I3
sg28
g123
sg30
F0.0
sg31
g124
sg33
g125
sg35
g36
sg37
I01
sg38
I2
sg39
g121
sg40
I3
stp1000
Rp1001
ag0
(g20
g2
(dp1002
g22
g890
sg24
I00
sg7
g891
sg26
I00
sg27
I1
sg28
g892
sg30
F0.0
sg31
g893
sg33
g894
sg35
g341
sg37
I01
sg38
I3
sg39
g890
sg40
I-24
stp1003
Rp1004
atp1005
Rp1006
sg57
(lp1007
g59
asg27
(lp1008
g0
(g61
g13
(lp1009
g63
(I1
I0
tp1010
Rp1011
atp1012
Rp1013
(dp1014
g69
g73
sg74
I00
sg75
I0
sbasg76
I34
sg77
(dp1015
S'QED'
p1016
I1
ssg80
(dp1017
g82
S'GWF'
p1018
sstp1019
Rp1020
ag0
(g15
g2
(dp1021
g17
g0
(g18
g13
(lp1022
g0
(g20
g2
(dp1023
g22
g217
sg24
I00
sg7
g218
sg26
I00
sg27
I3
sg28
g219
sg30
F0.0
sg31
g220
sg33
g221
sg35
g36
sg37
I01
sg38
I2
sg39
g217
sg40
I6
stp1024
Rp1025
ag0
(g20
g2
(dp1026
g22
g185
sg24
I01
sg7
g186
sg26
I00
sg27
I3
sg28
g187
sg30
F0.0
sg31
g188
sg33
g189
sg35
g36
sg37
I01
sg38
I2
sg39
g185
sg40
I5
stp1027
Rp1028
ag0
(g20
g2
(dp1029
g22
g890
sg24
I00
sg7
g891
sg26
I00
sg27
I1
sg28
g892
sg30
F0.0
sg31
g893
sg33
g894
sg35
g341
sg37
I01
sg38
I3
sg39
g890
sg40
I-24
stp1030
Rp1031
atp1032
Rp1033
sg57
(lp1034
g59
asg27
(lp1035
g0
(g61
g13
(lp1036
g63
(I1
I0
tp1037
Rp1038
atp1039
Rp1040
(dp1041
g69
g73
sg74
I00
sg75
I0
sbasg76
I35
sg77
(dp1042
S'QED'
p1043
I1
ssg80
(dp1044
g82
S'GWF'
p1045
sstp1046
Rp1047
ag0
(g15
g2
(dp1048
g17
g0
(g18
g13
(lp1049
g0
(g20
g2
(dp1050
g22
g806
sg24
I00
sg7
g807
sg26
I00
sg27
I1
sg28
g808
sg30
F0.0
sg31
g809
sg33
g810
sg35
g36
sg37
I01
sg38
I2
sg39
g806
sg40
I12
stp1051
Rp1052
ag0
(g20
g2
(dp1053
g22
g498
sg24
I01
sg7
g499
sg26
I00
sg27
I1
sg28
g500
sg30
F0.0
sg31
g501
sg33
g502
sg35
g36
sg37
I01
sg38
I2
sg39
g498
sg40
I11
stp1054
Rp1055
ag0
(g20
g2
(dp1056
g22
g890
sg24
I00
sg7
g891
sg26
I00
sg27
I1
sg28
g892
sg30
F0.0
sg31
g893
sg33
g894
sg35
g341
sg37
I01
sg38
I3
sg39
g890
sg40
I-24
stp1057
Rp1058
atp1059
Rp1060
sg57
(lp1061
g59
asg27
(lp1062
sg76
I36
sg77
(dp1063
S'QED'
p1064
I1
ssg80
(dp1065
g82
S'GWF'
p1066
sstp1067
Rp1068
ag0
(g15
g2
(dp1069
g17
g0
(g18
g13
(lp1070
g0
(g20
g2
(dp1071
g22
g832
sg24
I00
sg7
g833
sg26
I00
sg27
I1
sg28
g834
sg30
F0.0
sg31
g835
sg33
g836
sg35
g36
sg37
I01
sg38
I2
sg39
g832
sg40
I14
stp1072
Rp1073
ag0
(g20
g2
(dp1074
g22
g524
sg24
I01
sg7
g525
sg26
I00
sg27
I1
sg28
g526
sg30
F0.0
sg31
g527
sg33
g528
sg35
g36
sg37
I01
sg38
I2
sg39
g524
sg40
I13
stp1075
Rp1076
ag0
(g20
g2
(dp1077
g22
g890
sg24
I00
sg7
g891
sg26
I00
sg27
I1
sg28
g892
sg30
F0.0
sg31
g893
sg33
g894
sg35
g341
sg37
I01
sg38
I3
sg39
g890
sg40
I-24
stp1078
Rp1079
atp1080
Rp1081
sg57
(lp1082
g59
asg27
(lp1083
sg76
I37
sg77
(dp1084
S'QED'
p1085
I1
ssg80
(dp1086
g82
S'GWF'
p1087
sstp1088
Rp1089
ag0
(g15
g2
(dp1090
g17
g0
(g18
g13
(lp1091
g0
(g20
g2
(dp1092
g22
g858
sg24
I00
sg7
g859
sg26
I00
sg27
I1
sg28
g860
sg30
F0.0
sg31
g861
sg33
g862
sg35
g36
sg37
I01
sg38
I2
sg39
g858
sg40
I16
stp1093
Rp1094
ag0
(g20
g2
(dp1095
g22
g550
sg24
I01
sg7
g551
sg26
I00
sg27
I1
sg28
g552
sg30
F0.0
sg31
g553
sg33
g554
sg35
g36
sg37
I01
sg38
I2
sg39
g550
sg40
I15
stp1096
Rp1097
ag0
(g20
g2
(dp1098
g22
g890
sg24
I00
sg7
g891
sg26
I00
sg27
I1
sg28
g892
sg30
F0.0
sg31
g893
sg33
g894
sg35
g341
sg37
I01
sg38
I3
sg39
g890
sg40
I-24
stp1099
Rp1100
atp1101
Rp1102
sg57
(lp1103
g59
asg27
(lp1104
sg76
I38
sg77
(dp1105
S'QED'
p1106
I1
ssg80
(dp1107
g82
S'GWF'
p1108
sstp1109
Rp1110
ag0
(g15
g2
(dp1111
g17
g0
(g18
g13
(lp1112
g0
(g20
g2
(dp1113
g22
g498
sg24
I00
sg7
g499
sg26
I00
sg27
I1
sg28
g500
sg30
F0.0
sg31
g501
sg33
g502
sg35
g36
sg37
I01
sg38
I2
sg39
g498
sg40
I11
stp1114
Rp1115
ag0
(g20
g2
(dp1116
g22
g806
sg24
I01
sg7
g807
sg26
I00
sg27
I1
sg28
g808
sg30
F0.0
sg31
g809
sg33
g810
sg35
g36
sg37
I01
sg38
I2
sg39
g806
sg40
I12
stp1117
Rp1118
ag0
(g20
g2
(dp1119
g22
g890
sg24
I01
sg7
g891
sg26
I00
sg27
I1
sg28
g892
sg30
F0.0
sg31
g893
sg33
g894
sg35
g341
sg37
I01
sg38
I3
sg39
g890
sg40
I-24
stp1120
Rp1121
atp1122
Rp1123
sg57
(lp1124
g59
asg27
(lp1125
sg76
I39
sg77
(dp1126
S'QED'
p1127
I1
ssg80
(dp1128
g82
S'GWF'
p1129
sstp1130
Rp1131
ag0
(g15
g2
(dp1132
g17
g0
(g18
g13
(lp1133
g0
(g20
g2
(dp1134
g22
g524
sg24
I00
sg7
g525
sg26
I00
sg27
I1
sg28
g526
sg30
F0.0
sg31
g527
sg33
g528
sg35
g36
sg37
I01
sg38
I2
sg39
g524
sg40
I13
stp1135
Rp1136
ag0
(g20
g2
(dp1137
g22
g832
sg24
I01
sg7
g833
sg26
I00
sg27
I1
sg28
g834
sg30
F0.0
sg31
g835
sg33
g836
sg35
g36
sg37
I01
sg38
I2
sg39
g832
sg40
I14
stp1138
Rp1139
ag0
(g20
g2
(dp1140
g22
g890
sg24
I01
sg7
g891
sg26
I00
sg27
I1
sg28
g892
sg30
F0.0
sg31
g893
sg33
g894
sg35
g341
sg37
I01
sg38
I3
sg39
g890
sg40
I-24
stp1141
Rp1142
atp1143
Rp1144
sg57
(lp1145
g59
asg27
(lp1146
sg76
I40
sg77
(dp1147
S'QED'
p1148
I1
ssg80
(dp1149
g82
S'GWF'
p1150
sstp1151
Rp1152
ag0
(g15
g2
(dp1153
g17
g0
(g18
g13
(lp1154
g0
(g20
g2
(dp1155
g22
g550
sg24
I00
sg7
g551
sg26
I00
sg27
I1
sg28
g552
sg30
F0.0
sg31
g553
sg33
g554
sg35
g36
sg37
I01
sg38
I2
sg39
g550
sg40
I15
stp1156
Rp1157
ag0
(g20
g2
(dp1158
g22
g858
sg24
I01
sg7
g859
sg26
I00
sg27
I1
sg28
g860
sg30
F0.0
sg31
g861
sg33
g862
sg35
g36
sg37
I01
sg38
I2
sg39
g858
sg40
I16
stp1159
Rp1160
ag0
(g20
g2
(dp1161
g22
g890
sg24
I01
sg7
g891
sg26
I00
sg27
I1
sg28
g892
sg30
F0.0
sg31
g893
sg33
g894
sg35
g341
sg37
I01
sg38
I3
sg39
g890
sg40
I-24
stp1162
Rp1163
atp1164
Rp1165
sg57
(lp1166
g59
asg27
(lp1167
sg76
I41
sg77
(dp1168
S'QED'
p1169
I1
ssg80
(dp1170
g82
S'GWF'
p1171
sstp1172
Rp1173
ag0
(g15
g2
(dp1174
g17
g0
(g18
g13
(lp1175
g0
(g20
g2
(dp1176
g22
g550
sg24
I00
sg7
g551
sg26
I00
sg27
I1
sg28
g552
sg30
F0.0
sg31
g553
sg33
g554
sg35
g36
sg37
I01
sg38
I2
sg39
g550
sg40
I15
stp1177
Rp1178
ag0
(g20
g2
(dp1179
g22
g550
sg24
I01
sg7
g551
sg26
I00
sg27
I1
sg28
g552
sg30
F0.0
sg31
g553
sg33
g554
sg35
g36
sg37
I01
sg38
I2
sg39
g550
sg40
I15
stp1180
Rp1181
ag0
(g20
g2
(dp1182
g22
S'h'
p1183
sg24
I01
sg7
S'h'
p1184
sg26
I01
sg27
I1
sg28
S'HWIDTH'
p1185
sg30
F0.0
sg31
S'HMASS'
p1186
sg33
S'h'
p1187
sg35
S'dashed'
p1188
sg37
I01
sg38
I1
sg39
g1183
sg40
I25
stp1189
Rp1190
atp1191
Rp1192
sg57
(lp1193
g59
asg27
(lp1194
sg76
I42
sg77
(dp1195
S'QED'
p1196
I1
ssg80
(dp1197
g82
S'GHTAU'
p1198
sstp1199
Rp1200
ag0
(g15
g2
(dp1201
g17
g0
(g18
g13
(lp1202
g0
(g20
g2
(dp1203
g22
g185
sg24
I00
sg7
g186
sg26
I00
sg27
I3
sg28
g187
sg30
F0.0
sg31
g188
sg33
g189
sg35
g36
sg37
I01
sg38
I2
sg39
g185
sg40
I5
stp1204
Rp1205
ag0
(g20
g2
(dp1206
g22
g185
sg24
I01
sg7
g186
sg26
I00
sg27
I3
sg28
g187
sg30
F0.0
sg31
g188
sg33
g189
sg35
g36
sg37
I01
sg38
I2
sg39
g185
sg40
I5
stp1207
Rp1208
ag0
(g20
g2
(dp1209
g22
g1183
sg24
I01
sg7
g1184
sg26
I01
sg27
I1
sg28
g1185
sg30
F0.0
sg31
g1186
sg33
g1187
sg35
g1188
sg37
I01
sg38
I1
sg39
g1183
sg40
I25
stp1210
Rp1211
atp1212
Rp1213
sg57
(lp1214
g59
asg27
(lp1215
g0
(g61
g13
(lp1216
g63
(I1
I0
tp1217
Rp1218
atp1219
Rp1220
(dp1221
g69
g73
sg74
I00
sg75
I0
sbasg76
I43
sg77
(dp1222
S'QED'
p1223
I1
ssg80
(dp1224
g82
S'GHBOT'
p1225
sstp1226
Rp1227
ag0
(g15
g2
(dp1228
g17
g0
(g18
g13
(lp1229
g0
(g20
g2
(dp1230
g22
g217
sg24
I00
sg7
g218
sg26
I00
sg27
I3
sg28
g219
sg30
F0.0
sg31
g220
sg33
g221
sg35
g36
sg37
I01
sg38
I2
sg39
g217
sg40
I6
stp1231
Rp1232
ag0
(g20
g2
(dp1233
g22
g217
sg24
I01
sg7
g218
sg26
I00
sg27
I3
sg28
g219
sg30
F0.0
sg31
g220
sg33
g221
sg35
g36
sg37
I01
sg38
I2
sg39
g217
sg40
I6
stp1234
Rp1235
ag0
(g20
g2
(dp1236
g22
g1183
sg24
I01
sg7
g1184
sg26
I01
sg27
I1
sg28
g1185
sg30
F0.0
sg31
g1186
sg33
g1187
sg35
g1188
sg37
I01
sg38
I1
sg39
g1183
sg40
I25
stp1237
Rp1238
atp1239
Rp1240
sg57
(lp1241
g59
asg27
(lp1242
g0
(g61
g13
(lp1243
g63
(I1
I0
tp1244
Rp1245
atp1246
Rp1247
(dp1248
g69
g73
sg74
I00
sg75
I0
sbasg76
I44
sg77
(dp1249
S'QED'
p1250
I1
ssg80
(dp1251
g82
S'GHTOP'
p1252
sstp1253
Rp1254
ag0
(g15
g2
(dp1255
g17
g0
(g18
g13
(lp1256
g0
(g20
g2
(dp1257
g22
g890
sg24
I01
sg7
g891
sg26
I00
sg27
I1
sg28
g892
sg30
F0.0
sg31
g893
sg33
g894
sg35
g341
sg37
I01
sg38
I3
sg39
g890
sg40
I-24
stp1258
Rp1259
ag0
(g20
g2
(dp1260
g22
g890
sg24
I00
sg7
g891
sg26
I00
sg27
I1
sg28
g892
sg30
F0.0
sg31
g893
sg33
g894
sg35
g341
sg37
I01
sg38
I3
sg39
g890
sg40
I-24
stp1261
Rp1262
ag0
(g20
g2
(dp1263
g22
g336
sg24
I01
sg7
g337
sg26
I01
sg27
I1
sg28
g338
sg30
F0.0
sg31
g339
sg33
g340
sg35
g341
sg37
I01
sg38
I3
sg39
g336
sg40
I22
stp1264
Rp1265
atp1266
Rp1267
sg57
(lp1268
g59
asg27
(lp1269
sg76
I45
sg77
(dp1270
S'QED'
p1271
I1
ssg80
(dp1272
g82
S'GWWA'
p1273
sstp1274
Rp1275
ag0
(g15
g2
(dp1276
g17
g0
(g18
g13
(lp1277
g0
(g20
g2
(dp1278
g22
g890
sg24
I01
sg7
g891
sg26
I00
sg27
I1
sg28
g892
sg30
F0.0
sg31
g893
sg33
g894
sg35
g341
sg37
I01
sg38
I3
sg39
g890
sg40
I-24
stp1279
Rp1280
ag0
(g20
g2
(dp1281
g22
g890
sg24
I00
sg7
g891
sg26
I00
sg27
I1
sg28
g892
sg30
F0.0
sg31
g893
sg33
g894
sg35
g341
sg37
I01
sg38
I3
sg39
g890
sg40
I-24
stp1282
Rp1283
ag0
(g20
g2
(dp1284
g22
g582
sg24
I01
sg7
g583
sg26
I01
sg27
I1
sg28
g584
sg30
F0.0
sg31
g585
sg33
g586
sg35
g341
sg37
I01
sg38
I3
sg39
g582
sg40
I23
stp1285
Rp1286
atp1287
Rp1288
sg57
(lp1289
g59
asg27
(lp1290
sg76
I46
sg77
(dp1291
S'QED'
p1292
I1
ssg80
(dp1293
g82
S'GWWZ'
p1294
sstp1295
Rp1296
ag0
(g15
g2
(dp1297
g17
g0
(g18
g13
(lp1298
g0
(g20
g2
(dp1299
g22
g890
sg24
I01
sg7
g891
sg26
I00
sg27
I1
sg28
g892
sg30
F0.0
sg31
g893
sg33
g894
sg35
g341
sg37
I01
sg38
I3
sg39
g890
sg40
I-24
stp1300
Rp1301
ag0
(g20
g2
(dp1302
g22
g890
sg24
I00
sg7
g891
sg26
I00
sg27
I1
sg28
g892
sg30
F0.0
sg31
g893
sg33
g894
sg35
g341
sg37
I01
sg38
I3
sg39
g890
sg40
I-24
stp1303
Rp1304
ag0
(g20
g2
(dp1305
g22
g1183
sg24
I01
sg7
g1184
sg26
I01
sg27
I1
sg28
g1185
sg30
F0.0
sg31
g1186
sg33
g1187
sg35
g1188
sg37
I01
sg38
I1
sg39
g1183
sg40
I25
stp1306
Rp1307
atp1308
Rp1309
sg57
(lp1310
g59
asg27
(lp1311
sg76
I47
sg77
(dp1312
S'QED'
p1313
I1
ssg80
(dp1314
g82
S'GWWH'
p1315
sstp1316
Rp1317
ag0
(g15
g2
(dp1318
g17
g0
(g18
g13
(lp1319
g0
(g20
g2
(dp1320
g22
g582
sg24
I01
sg7
g583
sg26
I01
sg27
I1
sg28
g584
sg30
F0.0
sg31
g585
sg33
g586
sg35
g341
sg37
I01
sg38
I3
sg39
g582
sg40
I23
stp1321
Rp1322
ag0
(g20
g2
(dp1323
g22
g582
sg24
I01
sg7
g583
sg26
I01
sg27
I1
sg28
g584
sg30
F0.0
sg31
g585
sg33
g586
sg35
g341
sg37
I01
sg38
I3
sg39
g582
sg40
I23
stp1324
Rp1325
ag0
(g20
g2
(dp1326
g22
g1183
sg24
I01
sg7
g1184
sg26
I01
sg27
I1
sg28
g1185
sg30
F0.0
sg31
g1186
sg33
g1187
sg35
g1188
sg37
I01
sg38
I1
sg39
g1183
sg40
I25
stp1327
Rp1328
atp1329
Rp1330
sg57
(lp1331
g59
asg27
(lp1332
sg76
I48
sg77
(dp1333
S'QED'
p1334
I1
ssg80
(dp1335
g82
S'GZZH'
p1336
sstp1337
Rp1338
ag0
(g15
g2
(dp1339
g17
g0
(g18
g13
(lp1340
g0
(g20
g2
(dp1341
g22
g1183
sg24
I01
sg7
g1184
sg26
I01
sg27
I1
sg28
g1185
sg30
F0.0
sg31
g1186
sg33
g1187
sg35
g1188
sg37
I01
sg38
I1
sg39
g1183
sg40
I25
stp1342
Rp1343
ag0
(g20
g2
(dp1344
g22
g1183
sg24
I01
sg7
g1184
sg26
I01
sg27
I1
sg28
g1185
sg30
F0.0
sg31
g1186
sg33
g1187
sg35
g1188
sg37
I01
sg38
I1
sg39
g1183
sg40
I25
stp1345
Rp1346
ag0
(g20
g2
(dp1347
g22
g1183
sg24
I01
sg7
g1184
sg26
I01
sg27
I1
sg28
g1185
sg30
F0.0
sg31
g1186
sg33
g1187
sg35
g1188
sg37
I01
sg38
I1
sg39
g1183
sg40
I25
stp1348
Rp1349
atp1350
Rp1351
sg57
(lp1352
g59
asg27
(lp1353
sg76
I49
sg77
(dp1354
S'QED'
p1355
I1
ssg80
(dp1356
g82
S'GHHH'
p1357
sstp1358
Rp1359
ag0
(g15
g2
(dp1360
g17
g0
(g18
g13
(lp1361
g0
(g20
g2
(dp1362
g22
g890
sg24
I01
sg7
g891
sg26
I00
sg27
I1
sg28
g892
sg30
F0.0
sg31
g893
sg33
g894
sg35
g341
sg37
I01
sg38
I3
sg39
g890
sg40
I-24
stp1363
Rp1364
ag0
(g20
g2
(dp1365
g22
g336
sg24
I01
sg7
g337
sg26
I01
sg27
I1
sg28
g338
sg30
F0.0
sg31
g339
sg33
g340
sg35
g341
sg37
I01
sg38
I3
sg39
g336
sg40
I22
stp1366
Rp1367
ag0
(g20
g2
(dp1368
g22
g890
sg24
I00
sg7
g891
sg26
I00
sg27
I1
sg28
g892
sg30
F0.0
sg31
g893
sg33
g894
sg35
g341
sg37
I01
sg38
I3
sg39
g890
sg40
I-24
stp1369
Rp1370
ag0
(g20
g2
(dp1371
g22
g336
sg24
I01
sg7
g337
sg26
I01
sg27
I1
sg28
g338
sg30
F0.0
sg31
g339
sg33
g340
sg35
g341
sg37
I01
sg38
I3
sg39
g336
sg40
I22
stp1372
Rp1373
atp1374
Rp1375
sg57
(lp1376
S'WWVV'
p1377
asg27
(lp1378
sg76
I50
sg77
(dp1379
S'QED'
p1380
I2
ssg80
(dp1381
(I0
I0
tp1382
S'GWWA*GWWA'
p1383
sstp1384
Rp1385
ag0
(g15
g2
(dp1386
g17
g0
(g18
g13
(lp1387
g0
(g20
g2
(dp1388
g22
g890
sg24
I01
sg7
g891
sg26
I00
sg27
I1
sg28
g892
sg30
F0.0
sg31
g893
sg33
g894
sg35
g341
sg37
I01
sg38
I3
sg39
g890
sg40
I-24
stp1389
Rp1390
ag0
(g20
g2
(dp1391
g22
g582
sg24
I01
sg7
g583
sg26
I01
sg27
I1
sg28
g584
sg30
F0.0
sg31
g585
sg33
g586
sg35
g341
sg37
I01
sg38
I3
sg39
g582
sg40
I23
stp1392
Rp1393
ag0
(g20
g2
(dp1394
g22
g890
sg24
I00
sg7
g891
sg26
I00
sg27
I1
sg28
g892
sg30
F0.0
sg31
g893
sg33
g894
sg35
g341
sg37
I01
sg38
I3
sg39
g890
sg40
I-24
stp1395
Rp1396
ag0
(g20
g2
(dp1397
g22
g336
sg24
I01
sg7
g337
sg26
I01
sg27
I1
sg28
g338
sg30
F0.0
sg31
g339
sg33
g340
sg35
g341
sg37
I01
sg38
I3
sg39
g336
sg40
I22
stp1398
Rp1399
atp1400
Rp1401
sg57
(lp1402
g1377
asg27
(lp1403
sg76
I51
sg77
(dp1404
S'QED'
p1405
I2
ssg80
(dp1406
g1382
S'GWWZ*GWWA'
p1407
sstp1408
Rp1409
ag0
(g15
g2
(dp1410
g17
g0
(g18
g13
(lp1411
g0
(g20
g2
(dp1412
g22
g890
sg24
I01
sg7
g891
sg26
I00
sg27
I1
sg28
g892
sg30
F0.0
sg31
g893
sg33
g894
sg35
g341
sg37
I01
sg38
I3
sg39
g890
sg40
I-24
stp1413
Rp1414
ag0
(g20
g2
(dp1415
g22
g582
sg24
I01
sg7
g583
sg26
I01
sg27
I1
sg28
g584
sg30
F0.0
sg31
g585
sg33
g586
sg35
g341
sg37
I01
sg38
I3
sg39
g582
sg40
I23
stp1416
Rp1417
ag0
(g20
g2
(dp1418
g22
g890
sg24
I00
sg7
g891
sg26
I00
sg27
I1
sg28
g892
sg30
F0.0
sg31
g893
sg33
g894
sg35
g341
sg37
I01
sg38
I3
sg39
g890
sg40
I-24
stp1419
Rp1420
ag0
(g20
g2
(dp1421
g22
g582
sg24
I01
sg7
g583
sg26
I01
sg27
I1
sg28
g584
sg30
F0.0
sg31
g585
sg33
g586
sg35
g341
sg37
I01
sg38
I3
sg39
g582
sg40
I23
stp1422
Rp1423
atp1424
Rp1425
sg57
(lp1426
g1377
asg27
(lp1427
sg76
I52
sg77
(dp1428
S'QED'
p1429
I2
ssg80
(dp1430
g1382
S'GWWZ*GWWZ'
p1431
sstp1432
Rp1433
ag0
(g15
g2
(dp1434
g17
g0
(g18
g13
(lp1435
g0
(g20
g2
(dp1436
g22
g890
sg24
I01
sg7
g891
sg26
I00
sg27
I1
sg28
g892
sg30
F0.0
sg31
g893
sg33
g894
sg35
g341
sg37
I01
sg38
I3
sg39
g890
sg40
I-24
stp1437
Rp1438
ag0
(g20
g2
(dp1439
g22
g890
sg24
I00
sg7
g891
sg26
I00
sg27
I1
sg28
g892
sg30
F0.0
sg31
g893
sg33
g894
sg35
g341
sg37
I01
sg38
I3
sg39
g890
sg40
I-24
stp1440
Rp1441
ag0
(g20
g2
(dp1442
g22
g890
sg24
I01
sg7
g891
sg26
I00
sg27
I1
sg28
g892
sg30
F0.0
sg31
g893
sg33
g894
sg35
g341
sg37
I01
sg38
I3
sg39
g890
sg40
I-24
stp1443
Rp1444
ag0
(g20
g2
(dp1445
g22
g890
sg24
I00
sg7
g891
sg26
I00
sg27
I1
sg28
g892
sg30
F0.0
sg31
g893
sg33
g894
sg35
g341
sg37
I01
sg38
I3
sg39
g890
sg40
I-24
stp1446
Rp1447
atp1448
Rp1449
sg57
(lp1450
S'WWWW'
p1451
asg27
(lp1452
sg76
I53
sg77
(dp1453
S'QED'
p1454
I2
ssg80
(dp1455
(I0
I0
tp1456
S'sqrt(GWWZ**2+GWWA**2)'
p1457
sstp1458
Rp1459
ag0
(g15
g2
(dp1460
g17
g0
(g18
g13
(lp1461
g0
(g20
g2
(dp1462
g22
g890
sg24
I01
sg7
g891
sg26
I00
sg27
I1
sg28
g892
sg30
F0.0
sg31
g893
sg33
g894
sg35
g341
sg37
I01
sg38
I3
sg39
g890
sg40
I-24
stp1463
Rp1464
ag0
(g20
g2
(dp1465
g22
g890
sg24
I00
sg7
g891
sg26
I00
sg27
I1
sg28
g892
sg30
F0.0
sg31
g893
sg33
g894
sg35
g341
sg37
I01
sg38
I3
sg39
g890
sg40
I-24
stp1466
Rp1467
ag0
(g20
g2
(dp1468
g22
g1183
sg24
I01
sg7
g1184
sg26
I01
sg27
I1
sg28
g1185
sg30
F0.0
sg31
g1186
sg33
g1187
sg35
g1188
sg37
I01
sg38
I1
sg39
g1183
sg40
I25
stp1469
Rp1470
ag0
(g20
g2
(dp1471
g22
g1183
sg24
I01
sg7
g1184
sg26
I01
sg27
I1
sg28
g1185
sg30
F0.0
sg31
g1186
sg33
g1187
sg35
g1188
sg37
I01
sg38
I1
sg39
g1183
sg40
I25
stp1472
Rp1473
atp1474
Rp1475
sg57
(lp1476
g59
asg27
(lp1477
sg76
I54
sg77
(dp1478
S'QED'
p1479
I2
ssg80
(dp1480
g82
S'GWWHH'
p1481
sstp1482
Rp1483
ag0
(g15
g2
(dp1484
g17
g0
(g18
g13
(lp1485
g0
(g20
g2
(dp1486
g22
g582
sg24
I01
sg7
g583
sg26
I01
sg27
I1
sg28
g584
sg30
F0.0
sg31
g585
sg33
g586
sg35
g341
sg37
I01
sg38
I3
sg39
g582
sg40
I23
stp1487
Rp1488
ag0
(g20
g2
(dp1489
g22
g582
sg24
I01
sg7
g583
sg26
I01
sg27
I1
sg28
g584
sg30
F0.0
sg31
g585
sg33
g586
sg35
g341
sg37
I01
sg38
I3
sg39
g582
sg40
I23
stp1490
Rp1491
ag0
(g20
g2
(dp1492
g22
g1183
sg24
I01
sg7
g1184
sg26
I01
sg27
I1
sg28
g1185
sg30
F0.0
sg31
g1186
sg33
g1187
sg35
g1188
sg37
I01
sg38
I1
sg39
g1183
sg40
I25
stp1493
Rp1494
ag0
(g20
g2
(dp1495
g22
g1183
sg24
I01
sg7
g1184
sg26
I01
sg27
I1
sg28
g1185
sg30
F0.0
sg31
g1186
sg33
g1187
sg35
g1188
sg37
I01
sg38
I1
sg39
g1183
sg40
I25
stp1496
Rp1497
atp1498
Rp1499
sg57
(lp1500
g59
asg27
(lp1501
sg76
I55
sg77
(dp1502
S'QED'
p1503
I2
ssg80
(dp1504
g82
S'GZZHH'
p1505
sstp1506
Rp1507
atp1508
Rp1509
sS'ref_dict_to1'
p1510
(dp1511
sg17
g0
(g18
g13
(lp1512
g0
(g20
g2
(dp1513
g22
g23
sg37
I01
sg7
g25
sg26
I00
sg27
I3
sg28
g29
sg30
F0.0
sg31
g32
sg33
g34
sg35
g36
sg24
I01
sg38
I2
sg39
g23
sg40
I1
stp1514
Rp1515
ag0
(g20
g2
(dp1516
g22
g89
sg37
I01
sg7
g90
sg26
I00
sg27
I3
sg28
g91
sg30
F0.0
sg31
g92
sg33
g93
sg35
g36
sg24
I01
sg38
I2
sg39
g89
sg40
I2
stp1517
Rp1518
ag0
(g20
g2
(dp1519
g22
g121
sg37
I01
sg7
g122
sg26
I00
sg27
I3
sg28
g123
sg30
F0.0
sg31
g124
sg33
g125
sg35
g36
sg24
I01
sg38
I2
sg39
g121
sg40
I3
stp1520
Rp1521
ag0
(g20
g2
(dp1522
g22
g153
sg37
I01
sg7
g154
sg26
I00
sg27
I3
sg28
g155
sg30
F0.0
sg31
g156
sg33
g157
sg35
g36
sg24
I01
sg38
I2
sg39
g153
sg40
I4
stp1523
Rp1524
ag0
(g20
g2
(dp1525
g22
g185
sg37
I01
sg7
g186
sg26
I00
sg27
I3
sg28
g187
sg30
F0.0
sg31
g188
sg33
g189
sg35
g36
sg24
I01
sg38
I2
sg39
g185
sg40
I5
stp1526
Rp1527
ag0
(g20
g2
(dp1528
g22
g217
sg37
I01
sg7
g218
sg26
I00
sg27
I3
sg28
g219
sg30
F0.0
sg31
g220
sg33
g221
sg35
g36
sg24
I01
sg38
I2
sg39
g217
sg40
I6
stp1529
Rp1530
ag0
(g20
g2
(dp1531
g22
g498
sg37
I01
sg7
g499
sg26
I00
sg27
I1
sg28
g500
sg30
F0.0
sg31
g501
sg33
g502
sg35
g36
sg24
I01
sg38
I2
sg39
g498
sg40
I11
stp1532
Rp1533
ag0
(g20
g2
(dp1534
g22
g524
sg37
I01
sg7
g525
sg26
I00
sg27
I1
sg28
g526
sg30
F0.0
sg31
g527
sg33
g528
sg35
g36
sg24
I01
sg38
I2
sg39
g524
sg40
I13
stp1535
Rp1536
ag0
(g20
g2
(dp1537
g22
g550
sg37
I01
sg7
g551
sg26
I00
sg27
I1
sg28
g552
sg30
F0.0
sg31
g553
sg33
g554
sg35
g36
sg24
I01
sg38
I2
sg39
g550
sg40
I15
stp1538
Rp1539
ag0
(g20
g2
(dp1540
g22
g806
sg37
I01
sg7
g807
sg26
I00
sg27
I1
sg28
g808
sg30
F0.0
sg31
g809
sg33
g810
sg35
g36
sg24
I01
sg38
I2
sg39
g806
sg40
I12
stp1541
Rp1542
ag0
(g20
g2
(dp1543
g22
g832
sg37
I01
sg7
g833
sg26
I00
sg27
I1
sg28
g834
sg30
F0.0
sg31
g835
sg33
g836
sg35
g36
sg24
I01
sg38
I2
sg39
g832
sg40
I14
stp1544
Rp1545
ag0
(g20
g2
(dp1546
g22
g858
sg37
I01
sg7
g859
sg26
I00
sg27
I1
sg28
g860
sg30
F0.0
sg31
g861
sg33
g862
sg35
g36
sg24
I01
sg38
I2
sg39
g858
sg40
I16
stp1547
Rp1548
ag0
(g20
g2
(dp1549
g22
g47
sg37
I01
sg7
g48
sg26
I01
sg27
I8
sg28
g49
sg30
F0.0
sg31
g50
sg33
g51
sg35
g52
sg24
I01
sg38
I3
sg39
g47
sg40
I21
stp1550
Rp1551
ag0
(g20
g2
(dp1552
g22
g582
sg37
I01
sg7
g583
sg26
I01
sg27
I1
sg28
g584
sg30
F0.0
sg31
g585
sg33
g586
sg35
g341
sg24
I01
sg38
I3
sg39
g582
sg40
I23
stp1553
Rp1554
ag0
(g20
g2
(dp1555
g22
g336
sg37
I01
sg7
g337
sg26
I01
sg27
I1
sg28
g338
sg30
F0.0
sg31
g339
sg33
g340
sg35
g341
sg24
I01
sg38
I3
sg39
g336
sg40
I22
stp1556
Rp1557
ag0
(g20
g2
(dp1558
g22
g890
sg37
I01
sg7
g891
sg26
I00
sg27
I1
sg28
g892
sg30
F0.0
sg31
g893
sg33
g894
sg35
g341
sg24
I01
sg38
I3
sg39
g890
sg40
I-24
stp1559
Rp1560
ag0
(g20
g2
(dp1561
g22
g1183
sg37
I01
sg7
g1184
sg26
I01
sg27
I1
sg28
g1185
sg30
F0.0
sg31
g1186
sg33
g1187
sg35
g1188
sg24
I01
sg38
I1
sg39
g1183
sg40
I25
stp1562
Rp1563
atp1564
Rp1565
sg57
NsS'got_majoranas'
p1566
NsS'particle_dict'
p1567
(dp1568
I1
g1515
sI2
g1518
sI3
g1521
sI4
g1524
sI5
g1527
sI6
g1530
sI11
g1533
sI12
g1542
sI13
g1536
sI14
g1545
sI15
g1539
sI16
g1548
sI21
g1551
sI22
g1557
sI23
g1554
sI24
g0
(g20
g2
(dp1569
g22
g890
sg24
I00
sg7
g891
sg26
I00
sg27
I1
sg28
g892
sg30
F0.0
sg31
g893
sg33
g894
sg35
g341
sg37
I01
sg38
I3
sg39
g890
sg40
I-24
stp1570
Rp1571
sI25
g1563
sI-11
g0
(g20
g2
(dp1572
g22
g498
sg24
I00
sg7
g499
sg26
I00
sg27
I1
sg28
g500
sg30
F0.0
sg31
g501
sg33
g502
sg35
g36
sg37
I01
sg38
I2
sg39
g498
sg40
I11
stp1573
Rp1574
sI-24
g1560
sI-16
g0
(g20
g2
(dp1575
g22
g858
sg24
I00
sg7
g859
sg26
I00
sg27
I1
sg28
g860
sg30
F0.0
sg31
g861
sg33
g862
sg35
g36
sg37
I01
sg38
I2
sg39
g858
sg40
I16
stp1576
Rp1577
sI-15
g0
(g20
g2
(dp1578
g22
g550
sg24
I00
sg7
g551
sg26
I00
sg27
I1
sg28
g552
sg30
F0.0
sg31
g553
sg33
g554
sg35
g36
sg37
I01
sg38
I2
sg39
g550
sg40
I15
stp1579
Rp1580
sI-14
g0
(g20
g2
(dp1581
g22
g832
sg24
I00
sg7
g833
sg26
I00
sg27
I1
sg28
g834
sg30
F0.0
sg31
g835
sg33
g836
sg35
g36
sg37
I01
sg38
I2
sg39
g832
sg40
I14
stp1582
Rp1583
sI-13
g0
(g20
g2
(dp1584
g22
g524
sg24
I00
sg7
g525
sg26
I00
sg27
I1
sg28
g526
sg30
F0.0
sg31
g527
sg33
g528
sg35
g36
sg37
I01
sg38
I2
sg39
g524
sg40
I13
stp1585
Rp1586
sI-12
g0
(g20
g2
(dp1587
g22
g806
sg24
I00
sg7
g807
sg26
I00
sg27
I1
sg28
g808
sg30
F0.0
sg31
g809
sg33
g810
sg35
g36
sg37
I01
sg38
I2
sg39
g806
sg40
I12
stp1588
Rp1589
sI-2
g0
(g20
g2
(dp1590
g22
g89
sg24
I00
sg7
g90
sg26
I00
sg27
I3
sg28
g91
sg30
F0.0
sg31
g92
sg33
g93
sg35
g36
sg37
I01
sg38
I2
sg39
g89
sg40
I2
stp1591
Rp1592
sI-6
g0
(g20
g2
(dp1593
g22
g217
sg24
I00
sg7
g218
sg26
I00
sg27
I3
sg28
g219
sg30
F0.0
sg31
g220
sg33
g221
sg35
g36
sg37
I01
sg38
I2
sg39
g217
sg40
I6
stp1594
Rp1595
sI-5
g0
(g20
g2
(dp1596
g22
g185
sg24
I00
sg7
g186
sg26
I00
sg27
I3
sg28
g187
sg30
F0.0
sg31
g188
sg33
g189
sg35
g36
sg37
I01
sg38
I2
sg39
g185
sg40
I5
stp1597
Rp1598
sI-4
g0
(g20
g2
(dp1599
g22
g153
sg24
I00
sg7
g154
sg26
I00
sg27
I3
sg28
g155
sg30
F0.0
sg31
g156
sg33
g157
sg35
g36
sg37
I01
sg38
I2
sg39
g153
sg40
I4
stp1600
Rp1601
sI-3
g0
(g20
g2
(dp1602
g22
g121
sg24
I00
sg7
g122
sg26
I00
sg27
I3
sg28
g123
sg30
F0.0
sg31
g124
sg33
g125
sg35
g36
sg37
I01
sg38
I2
sg39
g121
sg40
I3
stp1603
Rp1604
sI-1
g0
(g20
g2
(dp1605
g22
g23
sg24
I00
sg7
g25
sg26
I00
sg27
I3
sg28
g29
sg30
F0.0
sg31
g32
sg33
g34
sg35
g36
sg37
I01
sg38
I2
sg39
g23
sg40
I1
stp1606
Rp1607
ssS'parameters'
p1608
Nsg80
Nstp1609
Rp1610
.